target datalayout = "e-m:e-p270:32:32-p271:32:32-p272:64:64-i64:64-i128:128-f80:128-n8:16:32:64-S128"
target triple = "x86_64-pc-linux-gnu"

%struct.rb_data_type_struct = type { ptr, %struct.anon, ptr, ptr, i64 }
%struct.anon = type { ptr, ptr, ptr, ptr, [1 x ptr] }
%struct.RTypedData = type { %struct.RBasic, ptr, i64, ptr }
%struct.RBasic = type { i64, i64 }

@eOCSPError = internal global i64 0, align 8
@cOCSPCertId = internal global i64 0, align 8
@ossl_ocsp_request_type = internal constant %struct.rb_data_type_struct { ptr @.str.71, %struct.anon { ptr null, ptr @ossl_ocsp_request_free, ptr null, ptr null, [1 x ptr] zeroinitializer }, ptr null, ptr null, i64 33 }, align 8
@rb_eRuntimeError = external global i64, align 8
@.str.70 = private unnamed_addr constant [28 x i8] c"Request wasn't initialized!\00", align 1
@ossl_ocsp_certid_type = internal constant %struct.rb_data_type_struct { ptr @.str.80, %struct.anon { ptr null, ptr @ossl_ocsp_certid_free, ptr null, ptr null, [1 x ptr] zeroinitializer }, ptr null, ptr null, i64 33 }, align 8
@.str.77 = private unnamed_addr constant [28 x i8] c"Cert ID wasn't initialized!\00", align 1

; Function Attrs: nounwind sspstrong uwtable
define internal i64 @ossl_ocspreq_get_certid(i64 noundef %0) #0 {
  %2 = alloca i64, align 8
  %3 = alloca ptr, align 8
  %4 = alloca ptr, align 8
  %5 = alloca ptr, align 8
  %6 = alloca i64, align 8
  %7 = alloca i64, align 8
  %8 = alloca i32, align 4
  %9 = alloca i32, align 4
  store i64 %0, ptr %2, align 8, !tbaa !6
  call void @llvm.lifetime.start.p0(i64 8, ptr %3) #15
  call void @llvm.lifetime.start.p0(i64 8, ptr %4) #15
  call void @llvm.lifetime.start.p0(i64 8, ptr %5) #15
  call void @llvm.lifetime.start.p0(i64 8, ptr %6) #15
  call void @llvm.lifetime.start.p0(i64 8, ptr %7) #15
  call void @llvm.lifetime.start.p0(i64 4, ptr %8) #15
  call void @llvm.lifetime.start.p0(i64 4, ptr %9) #15
  br label %10

10:                                               ; preds = %1
  %11 = load i64, ptr %2, align 8, !tbaa !6
  %12 = call ptr @rb_check_typeddata(i64 noundef %11, ptr noundef @ossl_ocsp_request_type)
  store ptr %12, ptr %3, align 8, !tbaa !10
  %13 = load ptr, ptr %3, align 8, !tbaa !10
  %14 = icmp ne ptr %13, null
  br i1 %14, label %17, label %15

15:                                               ; preds = %10
  %16 = load i64, ptr @rb_eRuntimeError, align 8, !tbaa !6
  call void (i64, ptr, ...) @ossl_raise(i64 noundef %16, ptr noundef @.str.70) #16
  unreachable

17:                                               ; preds = %10
  br label %18

18:                                               ; preds = %17
  br label %19

19:                                               ; preds = %18
  %20 = load ptr, ptr %3, align 8, !tbaa !10
  %21 = call i32 @OCSP_request_onereq_count(ptr noundef %20)
  store i32 %21, ptr %9, align 4, !tbaa !17
  %22 = load i32, ptr %9, align 4, !tbaa !17
  %23 = icmp sgt i32 %22, 0
  br i1 %23, label %24, label %26

24:                                               ; preds = %19
  %25 = call i64 @rb_ary_new()
  br label %27

26:                                               ; preds = %19
  br label %27

27:                                               ; preds = %26, %24
  %28 = phi i64 [ %25, %24 ], [ 4, %26 ]
  store i64 %28, ptr %6, align 8, !tbaa !6
  store i32 0, ptr %8, align 4, !tbaa !17
  br label %29

29:                                               ; preds = %61, %27
  %30 = load i32, ptr %8, align 4, !tbaa !17
  %31 = load i32, ptr %9, align 4, !tbaa !17
  %32 = icmp slt i32 %30, %31
  br i1 %32, label %33, label %64

33:                                               ; preds = %29
  %34 = load ptr, ptr %3, align 8, !tbaa !10
  %35 = load i32, ptr %8, align 4, !tbaa !17
  %36 = call ptr @OCSP_request_onereq_get0(ptr noundef %34, i32 noundef %35)
  store ptr %36, ptr %4, align 8, !tbaa !27
  %37 = load i64, ptr @cOCSPCertId, align 8, !tbaa !6
  %38 = call i64 @rb_data_typed_object_wrap(i64 noundef %37, ptr noundef null, ptr noundef @ossl_ocsp_certid_type)
  store i64 %38, ptr %7, align 8, !tbaa !6
  %39 = load ptr, ptr %4, align 8, !tbaa !27
  %40 = call ptr @OCSP_onereq_get0_id(ptr noundef %39)
  %41 = call ptr @OCSP_CERTID_dup(ptr noundef %40)
  store ptr %41, ptr %5, align 8, !tbaa !25
  %42 = icmp ne ptr %41, null
  br i1 %42, label %45, label %43

43:                                               ; preds = %33
  %44 = load i64, ptr @eOCSPError, align 8, !tbaa !6
  call void (i64, ptr, ...) @ossl_raise(i64 noundef %44, ptr noundef null) #16
  unreachable

45:                                               ; preds = %33
  br label %46

46:                                               ; preds = %45
  %47 = load ptr, ptr %5, align 8, !tbaa !25
  %48 = icmp ne ptr %47, null
  br i1 %48, label %51, label %49

49:                                               ; preds = %46
  %50 = load i64, ptr @rb_eRuntimeError, align 8, !tbaa !6
  call void (i64, ptr, ...) @ossl_raise(i64 noundef %50, ptr noundef @.str.77) #16
  unreachable

51:                                               ; preds = %46
  %52 = load ptr, ptr %5, align 8, !tbaa !25
  %53 = load i64, ptr %7, align 8, !tbaa !6
  %54 = inttoptr i64 %53 to ptr
  %55 = getelementptr inbounds nuw %struct.RTypedData, ptr %54, i32 0, i32 3
  store ptr %52, ptr %55, align 8, !tbaa !13
  br label %56

56:                                               ; preds = %51
  br label %57

57:                                               ; preds = %56
  %58 = load i64, ptr %6, align 8, !tbaa !6
  %59 = load i64, ptr %7, align 8, !tbaa !6
  %60 = call i64 @rb_ary_push(i64 noundef %58, i64 noundef %59)
  br label %61

61:                                               ; preds = %57
  %62 = load i32, ptr %8, align 4, !tbaa !17
  %63 = add nsw i32 %62, 1
  store i32 %63, ptr %8, align 4, !tbaa !17
  br label %29, !llvm.loop !29

64:                                               ; preds = %29
  %65 = load i64, ptr %6, align 8, !tbaa !6
  call void @llvm.lifetime.end.p0(i64 4, ptr %9) #15
  call void @llvm.lifetime.end.p0(i64 4, ptr %8) #15
  call void @llvm.lifetime.end.p0(i64 8, ptr %7) #15
  call void @llvm.lifetime.end.p0(i64 8, ptr %6) #15
  call void @llvm.lifetime.end.p0(i64 8, ptr %5) #15
  call void @llvm.lifetime.end.p0(i64 8, ptr %4) #15
  call void @llvm.lifetime.end.p0(i64 8, ptr %3) #15
  ret i64 %65
}