; Function Attrs: nounwind sspstrong uwtable
define internal i64 @ossl_ocspreq_get_certid(i64 noundef %0) #0 {
  %2 = tail call ptr @rb_check_typeddata(i64 noundef %0, ptr noundef nonnull @ossl_ocsp_request_type) #5
  %.not = icmp eq ptr %2, null
  br i1 %.not, label %3, label %5

3:                                                ; preds = %1
  %4 = load i64, ptr @rb_eRuntimeError, align 8, !tbaa !6
  tail call void (i64, ptr, ...) @ossl_raise(i64 noundef %4, ptr noundef nonnull @.str.70) #6
  unreachable

5:                                                ; preds = %1
  %6 = tail call i32 @OCSP_request_onereq_count(ptr noundef nonnull %2) #5
  %7 = icmp sgt i32 %6, 0
  br i1 %7, label %.lr.ph.preheader, label %._crit_edge

.lr.ph.preheader:                                 ; preds = %5
  %8 = tail call i64 @rb_ary_new() #5
  br label %.lr.ph

.lr.ph:                                           ; preds = %.lr.ph.preheader, %16
  %.018 = phi i32 [ %20, %16 ], [ 0, %.lr.ph.preheader ]
  %9 = tail call ptr @OCSP_request_onereq_get0(ptr noundef nonnull %2, i32 noundef %.018) #5
  %10 = load i64, ptr @cOCSPCertId, align 8, !tbaa !6
  %11 = tail call i64 @rb_data_typed_object_wrap(i64 noundef %10, ptr noundef null, ptr noundef nonnull @ossl_ocsp_certid_type) #5
  %12 = tail call ptr @OCSP_onereq_get0_id(ptr noundef %9) #5
  %13 = tail call ptr @OCSP_CERTID_dup(ptr noundef %12) #5
  %.not17 = icmp eq ptr %13, null
  br i1 %.not17, label %14, label %16

14:                                               ; preds = %.lr.ph
  %15 = load i64, ptr @eOCSPError, align 8, !tbaa !6
  tail call void (i64, ptr, ...) @ossl_raise(i64 noundef %15, ptr noundef null) #6
  unreachable

16:                                               ; preds = %.lr.ph
  %17 = inttoptr i64 %11 to ptr
  %18 = getelementptr inbounds nuw i8, ptr %17, i64 32
  store ptr %13, ptr %18, align 8, !tbaa !10
  %19 = tail call i64 @rb_ary_push(i64 noundef %8, i64 noundef %11) #5
  %20 = add nuw nsw i32 %.018, 1
  %exitcond.not = icmp eq i32 %20, %6
  br i1 %exitcond.not, label %._crit_edge, label %.lr.ph, !llvm.loop !29

._crit_edge:                                      ; preds = %16, %5
  %21 = phi i64 [ 4, %5 ], [ %8, %16 ]
  ret i64 %21
}